target datalayout = "e-m:e-p270:32:32-p271:32:32-p272:64:64-i64:64-i128:128-f80:128-n8:16:32:64-S128"
target triple = "x86_64-pc-linux-gnu"

%struct._capture_file = type { ptr, i32, ptr, ptr, i8, i8, i8, i64, i16, i32, i32, i32, ptr, i32, i64, i32, i32, i32, i32, i8, i32, %struct.nstime_t, i32, ptr, ptr, ptr, i8, i8, i32, ptr, i8, i8, i8, i8, i8, i32, i32, i8, ptr, i32, i32, i8, %struct.packet_provider_data, i32, i32, %struct.epan_column_info, ptr, ptr, ptr, %struct.wtap_rec, %struct.Buffer, ptr, i64, i32 }
%struct.nstime_t = type { i64, i32 }
%struct.packet_provider_data = type { ptr, ptr, ptr, ptr, ptr, ptr }
%struct.epan_column_info = type { ptr, i32, ptr, ptr, ptr, %struct.col_expr_t, i8, ptr }
%struct.col_expr_t = type { ptr, ptr }
%struct.wtap_rec = type { i32, i32, i32, %struct.nstime_t, i32, %struct.nstime_t, i8, %union.anon, ptr, i8, %struct.Buffer, %struct.Buffer }
%union.anon = type { %struct.wtap_packet_header }
%struct.wtap_packet_header = type { i32, i32, i32, i32, %union.wtap_pseudo_header }
%union.wtap_pseudo_header = type { %struct.erf_mc_phdr }
%struct.erf_mc_phdr = type { %struct.erf_phdr, [16 x %struct.erf_ehdr], %union.anon.1 }
%struct.erf_phdr = type { i64, i8, i8, i16, i16, i16 }
%struct.erf_ehdr = type { i64 }
%union.anon.1 = type { i32 }
%struct.Buffer = type { ptr, i64, i64, i64 }
%struct.epan_dissect = type { ptr, ptr, ptr, %struct._packet_info }
%struct._packet_info = type { ptr, ptr, i32, i32, %struct.nstime_t, %struct.nstime_t, %struct.nstime_t, i8, ptr, ptr, ptr, ptr, %struct._address, %struct._address, %struct._address, %struct._address, %struct._address, %struct._address, i32, ptr, i8, [3 x i8], %struct.anon.3, i32, i32, i32, i32, ptr, i8, ptr, ptr, i16, i16, i32, i32, i16, i32, i32, ptr, ptr, ptr, i8, i8, i16, i16, i16, i32, i16, i16, ptr, ptr, ptr, ptr, ptr, i32, i32 }
%struct._address = type { i32, i32, ptr, ptr }
%struct.anon.3 = type { i8, [3 x i8] }
%struct.packet_range_tag = type { i32, i8, i8, i8, ptr, i32, ptr, i32, ptr, i32, i32, i32, i32, i32, i32, i32, i32, i32, i32, i32, i32, i32, i32, i32, i32, i32, i32, i32, i32, i32, i32, i32, i32, i32, i32, i32, ptr, ptr, ptr, ptr, ptr, ptr, ptr, ptr, i8, i32 }
%struct.print_args_t = type { ptr, i32, i8, ptr, ptr, %struct.packet_range_tag, i8, i8, i32, i8, i32, i8 }
%struct.write_packet_callback_args_t = type { ptr, %struct.epan_dissect, ptr, %struct.json_dumper }
%struct.json_dumper = type { ptr, ptr, i32, i32, i32, i32, [1100 x i8] }

@.str.28 = private unnamed_addr constant [17 x i8] c"selected packets\00", align 1
@.str.29 = private unnamed_addr constant [2 x i8] c"w\00", align 1
@.str.31 = private unnamed_addr constant [13 x i8] c"Writing PSML\00", align 1

; Function Attrs: null_pointer_is_valid sspstrong uwtable
define hidden i32 @cf_write_psml_packets(ptr noundef %0, ptr noundef %1) #1 {
  %3 = alloca i32, align 4
  %4 = alloca ptr, align 8
  %5 = alloca ptr, align 8
  %6 = alloca %struct.write_packet_callback_args_t, align 8
  %7 = alloca ptr, align 8
  %8 = alloca i32, align 4
  %9 = alloca i8, align 1
  %10 = alloca i32, align 4
  store ptr %0, ptr %4, align 8
  store ptr %1, ptr %5, align 8
  call void @llvm.lifetime.start.p0(i64 1616, ptr %6) #19
  call void @llvm.lifetime.start.p0(i64 8, ptr %7) #19
  call void @llvm.lifetime.start.p0(i64 4, ptr %8) #19
  call void @llvm.lifetime.start.p0(i64 1, ptr %9) #19
  %11 = load ptr, ptr %5, align 8
  %12 = getelementptr inbounds nuw %struct.print_args_t, ptr %11, i32 0, i32 3
  %13 = load ptr, ptr %12, align 8
  %14 = call noalias ptr @fopen(ptr noundef %13, ptr noundef @.str.29)
  store ptr %14, ptr %7, align 8
  %15 = load ptr, ptr %7, align 8
  %16 = icmp eq ptr %15, null
  br i1 %16, label %17, label %18

17:                                               ; preds = %2
  store i32 1, ptr %3, align 4
  store i32 1, ptr %10, align 4
  br label %69

18:                                               ; preds = %2
  %19 = load ptr, ptr %4, align 8
  %20 = getelementptr inbounds nuw %struct._capture_file, ptr %19, i32 0, i32 45
  %21 = load ptr, ptr %7, align 8
  call void @write_psml_preamble(ptr noundef %20, ptr noundef %21)
  %22 = load ptr, ptr %7, align 8
  %23 = call i32 @ferror(ptr noundef %22) #19
  %24 = icmp ne i32 %23, 0
  br i1 %24, label %25, label %28

25:                                               ; preds = %18
  %26 = load ptr, ptr %7, align 8
  %27 = call i32 @fclose(ptr noundef %26)
  store i32 2, ptr %3, align 4
  store i32 1, ptr %10, align 4
  br label %69

28:                                               ; preds = %18
  %29 = load ptr, ptr %7, align 8
  %30 = getelementptr inbounds nuw %struct.write_packet_callback_args_t, ptr %6, i32 0, i32 0
  store ptr %29, ptr %30, align 8
  %31 = load ptr, ptr %5, align 8
  %32 = getelementptr inbounds nuw %struct.write_packet_callback_args_t, ptr %6, i32 0, i32 2
  store ptr %31, ptr %32, align 8
  %33 = load ptr, ptr %4, align 8
  %34 = getelementptr inbounds nuw %struct._capture_file, ptr %33, i32 0, i32 45
  %35 = call zeroext i1 @have_custom_cols(ptr noundef %34)
  br i1 %35, label %38, label %36

36:                                               ; preds = %28
  %37 = call zeroext i1 @have_field_extractors()
  br label %38

38:                                               ; preds = %36, %28
  %39 = phi i1 [ true, %28 ], [ %37, %36 ]
  %40 = zext i1 %39 to i8
  store i8 %40, ptr %9, align 1
  %41 = getelementptr inbounds nuw %struct.write_packet_callback_args_t, ptr %6, i32 0, i32 1
  %42 = load ptr, ptr %4, align 8
  %43 = getelementptr inbounds nuw %struct._capture_file, ptr %42, i32 0, i32 0
  %44 = load ptr, ptr %43, align 8
  %45 = load i8, ptr %9, align 1, !range !8, !noundef !9
  %46 = trunc i8 %45 to i1
  %47 = load i8, ptr %9, align 1, !range !8, !noundef !9
  %48 = trunc i8 %47 to i1
  call void @epan_dissect_init(ptr noundef %41, ptr noundef %44, i1 noundef zeroext %46, i1 noundef zeroext %48)
  %49 = load ptr, ptr %4, align 8
  %50 = load ptr, ptr %5, align 8
  %51 = getelementptr inbounds nuw %struct.print_args_t, ptr %50, i32 0, i32 5
  %52 = call i32 @process_specified_records(ptr noundef %49, ptr noundef %51, ptr noundef @.str.31, ptr noundef @.str.28, i1 noundef zeroext true, ptr noundef @write_psml_packet, ptr noundef %6, i1 noundef zeroext true)
  store i32 %52, ptr %8, align 4
  %53 = getelementptr inbounds nuw %struct.write_packet_callback_args_t, ptr %6, i32 0, i32 1
  call void @epan_dissect_cleanup(ptr noundef %53)
  %54 = load i32, ptr %8, align 4
  switch i32 %54, label %58 [
    i32 0, label %58
    i32 1, label %58
    i32 2, label %55
  ]

55:                                               ; preds = %38
  %56 = load ptr, ptr %7, align 8
  %57 = call i32 @fclose(ptr noundef %56)
  store i32 2, ptr %3, align 4
  store i32 1, ptr %10, align 4
  br label %69

58:                                               ; preds = %38, %38, %38
  %59 = load ptr, ptr %7, align 8
  call void @write_psml_finale(ptr noundef %59)
  %60 = load ptr, ptr %7, align 8
  %61 = call i32 @ferror(ptr noundef %60) #19
  %62 = icmp ne i32 %61, 0
  br i1 %62, label %63, label %66

63:                                               ; preds = %58
  %64 = load ptr, ptr %7, align 8
  %65 = call i32 @fclose(ptr noundef %64)
  store i32 2, ptr %3, align 4
  store i32 1, ptr %10, align 4
  br label %69

66:                                               ; preds = %58
  %67 = load ptr, ptr %7, align 8
  %68 = call i32 @fclose(ptr noundef %67)
  store i32 0, ptr %3, align 4
  store i32 1, ptr %10, align 4
  br label %69

69:                                               ; preds = %66, %63, %55, %25, %17
  call void @llvm.lifetime.end.p0(i64 1, ptr %9) #19
  call void @llvm.lifetime.end.p0(i64 4, ptr %8) #19
  call void @llvm.lifetime.end.p0(i64 8, ptr %7) #19
  call void @llvm.lifetime.end.p0(i64 1616, ptr %6) #19
  %70 = load i32, ptr %3, align 4
  ret i32 %70
}