; Function Attrs: null_pointer_is_valid sspstrong uwtable
define hidden range(i32 0, 3) i32 @cf_write_psml_packets(ptr noundef %0, ptr noundef %1) local_unnamed_addr #1 {
  %3 = alloca %struct.write_packet_callback_args_t, align 8
  call void @llvm.lifetime.start.p0(i64 1616, ptr nonnull %3) #23
  %4 = getelementptr inbounds nuw i8, ptr %1, i64 16
  %5 = load ptr, ptr %4, align 8
  %6 = tail call noalias ptr @fopen(ptr noundef %5, ptr noundef nonnull @.str.29)
  %7 = icmp eq ptr %6, null
  br i1 %7, label %29, label %8

8:                                                ; preds = %2
  %9 = getelementptr inbounds nuw i8, ptr %0, i64 280
  tail call void @write_psml_preamble(ptr noundef nonnull %9, ptr noundef nonnull %6)
  %10 = tail call i32 @ferror(ptr noundef nonnull %6) #23
  %.not = icmp eq i32 %10, 0
  br i1 %.not, label %13, label %11

11:                                               ; preds = %8
  %12 = tail call i32 @fclose(ptr noundef nonnull %6)
  br label %29

13:                                               ; preds = %8
  store ptr %6, ptr %3, align 8
  %14 = getelementptr inbounds nuw i8, ptr %3, i64 472
  store ptr %1, ptr %14, align 8
  %15 = tail call zeroext i1 @have_custom_cols(ptr noundef nonnull %9)
  br i1 %15, label %18, label %16

16:                                               ; preds = %13
  %17 = tail call zeroext i1 @have_field_extractors()
  br label %18

18:                                               ; preds = %16, %13
  %19 = phi i1 [ true, %13 ], [ %17, %16 ]
  %20 = getelementptr inbounds nuw i8, ptr %3, i64 8
  %21 = load ptr, ptr %0, align 8
  call void @epan_dissect_init(ptr noundef nonnull %20, ptr noundef %21, i1 noundef zeroext %19, i1 noundef zeroext %19)
  %22 = getelementptr inbounds nuw i8, ptr %1, i64 32
  %23 = call fastcc i32 @process_specified_records(ptr noundef %0, ptr noundef nonnull %22, ptr noundef nonnull @.str.31, ptr noundef nonnull @.str.28, ptr noundef nonnull @write_psml_packet, ptr noundef nonnull %3, i1 noundef zeroext true)
  call void @epan_dissect_cleanup(ptr noundef nonnull %20)
  %cond = icmp eq i32 %23, 2
  br i1 %cond, label %24, label %26

24:                                               ; preds = %18
  %25 = call i32 @fclose(ptr noundef nonnull %6)
  br label %29

26:                                               ; preds = %18
  call void @write_psml_finale(ptr noundef nonnull %6)
  %27 = call i32 @ferror(ptr noundef nonnull %6) #23
  %.not21 = icmp eq i32 %27, 0
  %28 = call i32 @fclose(ptr noundef nonnull %6)
  %. = select i1 %.not21, i32 0, i32 2
  br label %29

29:                                               ; preds = %26, %2, %24, %11
  %.0 = phi i32 [ 2, %11 ], [ 2, %24 ], [ 1, %2 ], [ %., %26 ]
  call void @llvm.lifetime.end.p0(i64 1616, ptr nonnull %3) #23
  ret i32 %.0
}